(lp0
(dp1
S'costs'
p2
(dp3
S'other_functions'
p4
(dp5
S'lpfilt'
p6
I1
sS'deriv2'
p7
I1
sS'hpfilt'
p8
I1
sS'mvwint'
p9
I1
ssS'baseline'
p10
(dp11
S'division'
p12
I0
sS'return'
p13
I1
sS'addition'
p14
I0
sS'varassignment'
p15
I5
sS'bitshift'
p16
I0
sS'amount'
p17
I1
sS'multiplication'
p18
I0
sS'incrementation'
p19
I0
ssS'for'
p20
(lp21
sS'if'
p22
(lp23
(dp24
S'options'
p25
(lp26
(dp27
g2
(dp28
g4
(dp29
g6
I1
sS'deriv1'
p30
I1
sg7
I1
sg8
I1
sg9
I1
ssg10
(dp31
g12
I0
sg13
I0
sg14
I0
sg15
I0
sg16
I0
sg17
I1
sg18
I0
sg19
I0
ssg20
(lp32
sg22
(lp33
ssS'name'
p34
S'random if'
p35
sS'finalcost'
p36
(dp37
g12
I9
sg13
I7
sg14
I16
sg15
I110
sg16
I2
sg18
I1
sg19
I55
sg22
I50
ssasS'condition'
p38
S'if(init)'
p39
sassg34
S'QRSFilter'
p40
sg36
(dp41
g12
I18
sg13
I13
sg14
I31
sg15
I208
sg16
I4
sg18
I2
sg19
I99
sg22
I90
ssa(dp42
g2
(dp43
g4
(dp44
sg10
(dp45
g12
I3
sg13
I1
sg14
I6
sg15
I9
sg16
I2
sg17
I1
sg18
I1
sg19
I1
ssg20
(lp46
sg22
(lp47
(dp48
g25
(lp49
(dp50
g2
(dp51
g4
(dp52
sg10
(dp53
g12
I0
sg13
I0
sg14
I0
sg15
I2
sg16
I0
sg17
I1
sg18
I0
sg19
I0
ssg20
(lp54
(dp55
g36
(dp56
g12
I0
sg13
I0
sg14
I0
sg15
I21
sg16
I0
sg18
I0
sg19
I10
sg22
I10
ssS'bodycost'
p57
(dp58
g2
(dp59
g4
(dp60
sg10
(dp61
g12
I0
sg13
I0
sg14
I0
sg15
I2
sg16
I0
sg17
I1
sg18
I0
sg19
I0
ssg20
(lp62
sg22
(lp63
ssg34
S'random for'
p64
sg36
(dp65
g12
I0
sg13
I0
sg14
I0
sg15
I2
sg16
I0
sg18
I0
sg19
I0
sg22
I0
sssS'conditions'
p66
S'tor(ptr = 0; ptr < LPBUFFER_LGTH; ++ptr)'
p67
sS'numloops'
p68
I10
sS'optioncost'
p69
(dp70
g2
(dp71
g4
(dp72
sg10
(dp73
g12
I0
sg13
I0
sg14
I0
sg15
I1
sg16
I0
sg17
I1
sg18
I0
sg19
I1
ssg20
(lp74
sg22
(lp75
ssg34
S'for conditions'
p76
sg36
(dp77
g12
I0
sg13
I0
sg14
I0
sg15
I1
sg16
I0
sg18
I0
sg19
I1
sg22
I0
sssasg22
(lp78
ssg34
g35
sg36
(dp79
g12
I0
sg13
I0
sg14
I0
sg15
I23
sg16
I0
sg18
I0
sg19
I10
sg22
I10
ssasg38
S'if(init)'
p80
sa(dp81
g25
(lp82
(dp83
g2
(dp84
g4
(dp85
sg10
(dp86
g12
I0
sg13
I0
sg14
I1
sg15
I1
sg16
I0
sg17
I1
sg18
I0
sg19
I0
ssg20
(lp87
sg22
(lp88
ssg34
g35
sg36
(dp89
g12
I0
sg13
I0
sg14
I1
sg15
I1
sg16
I0
sg18
I0
sg19
I0
sg22
I0
ssasg38
S'if(halfPtr < 0)\t\t\t\t\t\t\t// to x[n-6].'
p90
sa(dp91
g25
(lp92
(dp93
g2
(dp94
g4
(dp95
sg10
(dp96
g12
I2
sg13
I0
sg14
I0
sg15
I1
sg16
I0
sg17
I1
sg18
I0
sg19
I0
ssg20
(lp97
sg22
(lp98
ssg34
g35
sg36
(dp99
g12
I2
sg13
I0
sg14
I0
sg15
I1
sg16
I0
sg18
I0
sg19
I0
sg22
I0
ssasg38
S'if(++ptr == LPBUFFER_LGTH)\t// the circular buffer and update'
p100
sassg34
g6
sg36
(dp101
g12
I5
sg13
I1
sg14
I7
sg15
I34
sg16
I2
sg18
I1
sg19
I11
sg22
I10
ssa(dp102
g2
(dp103
g4
(dp104
sg10
(dp105
g12
I0
sg13
I0
sg14
I0
sg15
I0
sg16
I0
sg17
I1
sg18
I0
sg19
I0
ssg20
(lp106
(dp107
g36
(dp108
g12
F0.0
sg13
F0.0
sg14
F0.0
sg15
F9.0
sg16
F0.0
sg18
F0.0
sg19
F8.0
sg22
F8.0
ssg57
(dp109
g2
(dp110
g4
(dp111
sg10
(dp112
g12
I0
sg13
I0
sg14
I0
sg15
I1
sg16
I0
sg17
I1
sg18
I0
sg19
I0
ssg20
(lp113
sg22
(lp114
ssg34
g64
sg36
(dp115
g12
I0
sg13
I0
sg14
I0
sg15
I1
sg16
I0
sg18
I0
sg19
I0
sg22
I0
sssg66
S'tor(int i =0; i < 8; i++)'
p116
sg68
F8.0
sg69
(dp117
g2
(dp118
g4
(dp119
sg10
(dp120
g12
I0
sg13
I0
sg14
I0
sg15
I1
sg16
I0
sg17
I1
sg18
I0
sg19
I1
ssg20
(lp121
sg22
(lp122
ssg34
g76
sg36
(dp123
g12
I0
sg13
I0
sg14
I0
sg15
I1
sg16
I0
sg18
I0
sg19
I1
sg22
I0
sssasg22
(lp124
ssg34
S'testfunction'
p125
sg36
(dp126
g12
F0.0
sg13
F0.0
sg14
F0.0
sg15
F9.0
sg16
F0.0
sg18
F0.0
sg19
F8.0
sg22
F8.0
ssa(dp127
g2
(dp128
g4
(dp129
sg10
(dp130
g12
I2
sg13
I1
sg14
I4
sg15
I6
sg16
I0
sg17
I1
sg18
I0
sg19
I1
ssg20
(lp131
sg22
(lp132
(dp133
g25
(lp134
(dp135
g2
(dp136
g4
(dp137
sg10
(dp138
g12
I0
sg13
I0
sg14
I0
sg15
I2
sg16
I0
sg17
I1
sg18
I0
sg19
I0
ssg20
(lp139
(dp140
g36
(dp141
g12
I0
sg13
I0
sg14
I0
sg15
I11
sg16
I0
sg18
I0
sg19
I10
sg22
I10
ssg57
(dp142
g2
(dp143
g4
(dp144
sg10
(dp145
g12
I0
sg13
I0
sg14
I0
sg15
I1
sg16
I0
sg17
I1
sg18
I0
sg19
I0
ssg20
(lp146
sg22
(lp147
ssg34
g64
sg36
(dp148
g12
I0
sg13
I0
sg14
I0
sg15
I1
sg16
I0
sg18
I0
sg19
I0
sg22
I0
sssg66
S'tor(ptr = 0; ptr < HPBUFFER_LGTH; ++ptr)'
p149
sg68
I10
sg69
(dp150
g2
(dp151
g4
(dp152
sg10
(dp153
g12
I0
sg13
I0
sg14
I0
sg15
I1
sg16
I0
sg17
I1
sg18
I0
sg19
I1
ssg20
(lp154
sg22
(lp155
ssg34
g76
sg36
(dp156
g12
I0
sg13
I0
sg14
I0
sg15
I1
sg16
I0
sg18
I0
sg19
I1
sg22
I0
sssasg22
(lp157
ssg34
g35
sg36
(dp158
g12
I0
sg13
I0
sg14
I0
sg15
I13
sg16
I0
sg18
I0
sg19
I10
sg22
I10
ssasg38
S'if(init)'
p159
sa(dp160
g25
(lp161
(dp162
g2
(dp163
g4
(dp164
sg10
(dp165
g12
I0
sg13
I0
sg14
I1
sg15
I1
sg16
I0
sg17
I1
sg18
I0
sg19
I0
ssg20
(lp166
sg22
(lp167
ssg34
g35
sg36
(dp168
g12
I0
sg13
I0
sg14
I1
sg15
I1
sg16
I0
sg18
I0
sg19
I0
sg22
I0
ssasg38
S'if(halfPtr < 0)'
p169
sa(dp170
g25
(lp171
(dp172
g2
(dp173
g4
(dp174
sg10
(dp175
g12
I0
sg13
I0
sg14
I0
sg15
I1
sg16
I0
sg17
I1
sg18
I0
sg19
I0
ssg20
(lp176
sg22
(lp177
ssg34
g35
sg36
(dp178
g12
I0
sg13
I0
sg14
I0
sg15
I1
sg16
I0
sg18
I0
sg19
I0
sg22
I0
ssasg38
S'if(++ptr == HPBUFFER_LGTH)'
p179
sassg34
g8
sg36
(dp180
g12
I2
sg13
I1
sg14
I5
sg15
I21
sg16
I0
sg18
I0
sg19
I11
sg22
I10
ssa(dp181
g2
(dp182
g4
(dp183
sg10
(dp184
g12
I0
sg13
I1
sg14
I1
sg15
I4
sg16
I0
sg17
I1
sg18
I0
sg19
I1
ssg20
(lp185
sg22
(lp186
(dp187
g25
(lp188
(dp189
g2
(dp190
g4
(dp191
sg10
(dp192
g12
I0
sg13
I1
sg14
I0
sg15
I1
sg16
I0
sg17
I1
sg18
I0
sg19
I0
ssg20
(lp193
(dp194
g36
(dp195
g12
I0
sg13
I0
sg14
I0
sg15
I11
sg16
I0
sg18
I0
sg19
I10
sg22
I10
ssg57
(dp196
g2
(dp197
g4
(dp198
sg10
(dp199
g12
I0
sg13
I0
sg14
I0
sg15
I1
sg16
I0
sg17
I1
sg18
I0
sg19
I0
ssg20
(lp200
sg22
(lp201
ssg34
g64
sg36
(dp202
g12
I0
sg13
I0
sg14
I0
sg15
I1
sg16
I0
sg18
I0
sg19
I0
sg22
I0
sssg66
S'tor(derI = 0; derI < DERIV_LENGTH; ++derI)'
p203
sg68
I10
sg69
(dp204
g2
(dp205
g4
(dp206
sg10
(dp207
g12
I0
sg13
I0
sg14
I0
sg15
I1
sg16
I0
sg17
I1
sg18
I0
sg19
I1
ssg20
(lp208
sg22
(lp209
ssg34
g76
sg36
(dp210
g12
I0
sg13
I0
sg14
I0
sg15
I1
sg16
I0
sg18
I0
sg19
I1
sg22
I0
sssasg22
(lp211
ssg34
g35
sg36
(dp212
g12
I0
sg13
I1
sg14
I0
sg15
I12
sg16
I0
sg18
I0
sg19
I10
sg22
I10
ssasg38
S'if(init != 0)'
p213
sa(dp214
g25
(lp215
(dp216
g2
(dp217
g4
(dp218
sg10
(dp219
g12
I0
sg13
I0
sg14
I0
sg15
I1
sg16
I0
sg17
I1
sg18
I0
sg19
I0
ssg20
(lp220
sg22
(lp221
ssg34
g35
sg36
(dp222
g12
I0
sg13
I0
sg14
I0
sg15
I1
sg16
I0
sg18
I0
sg19
I0
sg22
I0
ssasg38
S'if(++derI == DERIV_LENGTH)'
p223
sassg34
g30
sg36
(dp224
g12
I0
sg13
I2
sg14
I1
sg15
I17
sg16
I0
sg18
I0
sg19
I11
sg22
I10
ssa(dp225
g2
(dp226
g4
(dp227
sg10
(dp228
g12
I0
sg13
I1
sg14
I1
sg15
I4
sg16
I0
sg17
I1
sg18
I0
sg19
I1
ssg20
(lp229
sg22
(lp230
(dp231
g25
(lp232
(dp233
g2
(dp234
g4
(dp235
sg10
(dp236
g12
I0
sg13
I1
sg14
I0
sg15
I1
sg16
I0
sg17
I1
sg18
I0
sg19
I0
ssg20
(lp237
(dp238
g36
(dp239
g12
I0
sg13
I0
sg14
I0
sg15
I11
sg16
I0
sg18
I0
sg19
I10
sg22
I10
ssg57
(dp240
g2
(dp241
g4
(dp242
sg10
(dp243
g12
I0
sg13
I0
sg14
I0
sg15
I1
sg16
I0
sg17
I1
sg18
I0
sg19
I0
ssg20
(lp244
sg22
(lp245
ssg34
g64
sg36
(dp246
g12
I0
sg13
I0
sg14
I0
sg15
I1
sg16
I0
sg18
I0
sg19
I0
sg22
I0
sssg66
S'tor(derI = 0; derI < DERIV_LENGTH; ++derI)'
p247
sg68
I10
sg69
(dp248
g2
(dp249
g4
(dp250
sg10
(dp251
g12
I0
sg13
I0
sg14
I0
sg15
I1
sg16
I0
sg17
I1
sg18
I0
sg19
I1
ssg20
(lp252
sg22
(lp253
ssg34
g76
sg36
(dp254
g12
I0
sg13
I0
sg14
I0
sg15
I1
sg16
I0
sg18
I0
sg19
I1
sg22
I0
sssasg22
(lp255
ssg34
g35
sg36
(dp256
g12
I0
sg13
I1
sg14
I0
sg15
I12
sg16
I0
sg18
I0
sg19
I10
sg22
I10
ssasg38
S'if(init != 0)'
p257
sa(dp258
g25
(lp259
(dp260
g2
(dp261
g4
(dp262
sg10
(dp263
g12
I0
sg13
I0
sg14
I0
sg15
I1
sg16
I0
sg17
I1
sg18
I0
sg19
I0
ssg20
(lp264
sg22
(lp265
ssg34
g35
sg36
(dp266
g12
I0
sg13
I0
sg14
I0
sg15
I1
sg16
I0
sg18
I0
sg19
I0
sg22
I0
ssasg38
S'if(++derI == DERIV_LENGTH)'
p267
sassg34
g7
sg36
(dp268
g12
I0
sg13
I2
sg14
I1
sg15
I17
sg16
I0
sg18
I0
sg19
I11
sg22
I10
ssa(dp269
g2
(dp270
g4
(dp271
sg10
(dp272
g12
I2
sg13
I1
sg14
I2
sg15
I6
sg16
I0
sg17
I1
sg18
I0
sg19
I1
ssg20
(lp273
sg22
(lp274
(dp275
g25
(lp276
(dp277
g2
(dp278
g4
(dp279
sg10
(dp280
g12
I0
sg13
I0
sg14
I0
sg15
I2
sg16
I0
sg17
I1
sg18
I0
sg19
I0
ssg20
(lp281
(dp282
g36
(dp283
g12
I0
sg13
I0
sg14
I0
sg15
I11
sg16
I0
sg18
I0
sg19
I10
sg22
I10
ssg57
(dp284
g2
(dp285
g4
(dp286
sg10
(dp287
g12
I0
sg13
I0
sg14
I0
sg15
I1
sg16
I0
sg17
I1
sg18
I0
sg19
I0
ssg20
(lp288
sg22
(lp289
ssg34
g64
sg36
(dp290
g12
I0
sg13
I0
sg14
I0
sg15
I1
sg16
I0
sg18
I0
sg19
I0
sg22
I0
sssg66
S'tor(ptr = 0; ptr < WINDOW_WIDTH ; ++ptr)'
p291
sg68
I10
sg69
(dp292
g2
(dp293
g4
(dp294
sg10
(dp295
g12
I0
sg13
I0
sg14
I0
sg15
I1
sg16
I0
sg17
I1
sg18
I0
sg19
I1
ssg20
(lp296
sg22
(lp297
ssg34
g76
sg36
(dp298
g12
I0
sg13
I0
sg14
I0
sg15
I1
sg16
I0
sg18
I0
sg19
I1
sg22
I0
sssasg22
(lp299
ssg34
g35
sg36
(dp300
g12
I0
sg13
I0
sg14
I0
sg15
I13
sg16
I0
sg18
I0
sg19
I10
sg22
I10
ssasg38
S'if(init)'
p301
sa(dp302
g25
(lp303
(dp304
g2
(dp305
g4
(dp306
sg10
(dp307
g12
I0
sg13
I0
sg14
I0
sg15
I1
sg16
I0
sg17
I1
sg18
I0
sg19
I0
ssg20
(lp308
sg22
(lp309
ssg34
g35
sg36
(dp310
g12
I0
sg13
I0
sg14
I0
sg15
I1
sg16
I0
sg18
I0
sg19
I0
sg22
I0
ssasg38
S'if(++ptr == WINDOW_WIDTH)'
p311
sa(dp312
g25
(lp313
(dp314
g2
(dp315
g4
(dp316
sg10
(dp317
g12
I0
sg13
I0
sg14
I0
sg15
I1
sg16
I0
sg17
I1
sg18
I0
sg19
I0
ssg20
(lp318
sg22
(lp319
ssg34
g35
sg36
(dp320
g12
I0
sg13
I0
sg14
I0
sg15
I1
sg16
I0
sg18
I0
sg19
I0
sg22
I0
ssa(dp321
g2
(dp322
g4
(dp323
sg10
(dp324
g12
I0
sg13
I0
sg14
I0
sg15
I0
sg16
I0
sg17
I1
sg18
I0
sg19
I0
ssg20
(lp325
sg22
(lp326
ssg34
g35
sg36
(dp327
g12
I0
sg13
I0
sg14
I0
sg15
I0
sg16
I0
sg18
I0
sg19
I0
sg22
I0
ssasg38
S'if((sum / WINDOW_WIDTH) > 32000)'
p328
sassg34
g9
sg36
(dp329
g12
I2
sg13
I1
sg14
I2
sg15
I21
sg16
I0
sg18
I0
sg19
I11
sg22
I10
ssa.